; ModuleID = 'bench/qemu/original/meson-generated_.._qapi_qapi-events-rdma.c.ll'
source_filename = "bench/qemu/original/meson-generated_.._qapi_qapi-events-rdma.c.ll"
target datalayout = "e-m:e-p270:32:32-p271:32:32-p272:64:64-i64:64-i128:128-f80:128-n8:16:32:64-S128"
target triple = "x86_64-unknown-linux-gnu"

%struct.q_obj_RDMA_GID_STATUS_CHANGED_arg = type { ptr, i8, i64, i64 }

@.str = private unnamed_addr constant [24 x i8] c"RDMA_GID_STATUS_CHANGED\00", align 1
@error_abort = external global ptr, align 8
@.str.1 = private unnamed_addr constant [5 x i8] c"data\00", align 1
@qapi_dummy_qapi_events_rdma_c = dso_local local_unnamed_addr global i8 0, align 1
@.str.2 = private unnamed_addr constant [59 x i8] c"QTYPE_NONE < obj->base.type && obj->base.type < QTYPE__MAX\00", align 1
@.str.3 = private unnamed_addr constant [105 x i8] c"/home/dtcxzyw/WorkSpace/Projects/compilers/llvm-opt-benchmark/bench/qemu/qemu/include/qapi/qmp/qobject.h\00", align 1
@__PRETTY_FUNCTION__.qobject_type = private unnamed_addr constant [36 x i8] c"QType qobject_type(const QObject *)\00", align 1
@.str.4 = private unnamed_addr constant [25 x i8] c"!obj || obj->base.refcnt\00", align 1
@__PRETTY_FUNCTION__.qobject_unref_impl = private unnamed_addr constant [35 x i8] c"void qobject_unref_impl(QObject *)\00", align 1

; Function Attrs: nounwind sspstrong uwtable
define dso_local void @qapi_event_send_rdma_gid_status_changed(ptr noundef %netdev, i1 noundef zeroext %gid_status, i64 noundef %subnet_prefix, i64 noundef %interface_id) local_unnamed_addr #0 {
entry:
  %obj = alloca ptr, align 8
  %param = alloca %struct.q_obj_RDMA_GID_STATUS_CHANGED_arg, align 8
  %frombool = zext i1 %gid_status to i8
  store ptr %netdev, ptr %param, align 8
  %gid_status2 = getelementptr inbounds nuw i8, ptr %param, i64 8
  store i8 %frombool, ptr %gid_status2, align 8
  %subnet_prefix4 = getelementptr inbounds nuw i8, ptr %param, i64 16
  store i64 %subnet_prefix, ptr %subnet_prefix4, align 8
  %interface_id5 = getelementptr inbounds nuw i8, ptr %param, i64 24
  store i64 %interface_id, ptr %interface_id5, align 8
  %call = tail call ptr @qmp_event_build_dict(ptr noundef nonnull @.str) #3
  %call6 = call ptr @qobject_output_visitor_new_qmp(ptr noundef nonnull %obj) #3
  %call7 = call zeroext i1 @visit_start_struct(ptr noundef %call6, ptr noundef nonnull @.str, ptr noundef null, i64 noundef 0, ptr noundef nonnull @error_abort) #3
  %call8 = call zeroext i1 @visit_type_q_obj_RDMA_GID_STATUS_CHANGED_arg_members(ptr noundef %call6, ptr noundef nonnull %param, ptr noundef nonnull @error_abort) #3
  %call9 = call zeroext i1 @visit_check_struct(ptr noundef %call6, ptr noundef nonnull @error_abort) #3
  call void @visit_end_struct(ptr noundef %call6, ptr noundef null) #3
  call void @visit_complete(ptr noundef %call6, ptr noundef nonnull %obj) #3
  %0 = load ptr, ptr %obj, align 8
  %tobool.not.i = icmp eq ptr %0, null
  br i1 %tobool.not.i, label %if.else.i, label %land.lhs.true.i

land.lhs.true.i:                                  ; preds = %entry
  %obj.val.i = load i32, ptr %0, align 8
  %1 = add i32 %obj.val.i, -1
  %or.cond.i.i = icmp ult i32 %1, 6
  br i1 %or.cond.i.i, label %qobject_type.exit.i, label %if.else.i.i

if.else.i.i:                                      ; preds = %land.lhs.true.i
  call void @__assert_fail(ptr noundef nonnull @.str.2, ptr noundef nonnull @.str.3, i32 noundef 126, ptr noundef nonnull @__PRETTY_FUNCTION__.qobject_type) #4
  unreachable

qobject_type.exit.i:                              ; preds = %land.lhs.true.i
  %cmp.i = icmp eq i32 %obj.val.i, 4
  br i1 %cmp.i, label %qobject_check_type.exit, label %if.else.i

if.else.i:                                        ; preds = %qobject_type.exit.i, %entry
  br label %qobject_check_type.exit

qobject_check_type.exit:                          ; preds = %qobject_type.exit.i, %if.else.i
  %retval.0.i = phi ptr [ null, %if.else.i ], [ %0, %qobject_type.exit.i ]
  %call11 = call i64 @qdict_size(ptr noundef %retval.0.i) #3
  %tobool12.not = icmp eq i64 %call11, 0
  %2 = load ptr, ptr %obj, align 8
  br i1 %tobool12.not, label %if.else, label %if.then

if.then:                                          ; preds = %qobject_check_type.exit
  call void @qdict_put_obj(ptr noundef %call, ptr noundef nonnull @.str.1, ptr noundef %2) #3
  br label %if.end

if.else:                                          ; preds = %qobject_check_type.exit
  %tobool13.not = icmp eq ptr %2, null
  br i1 %tobool13.not, label %if.end, label %lor.lhs.false.i

lor.lhs.false.i:                                  ; preds = %if.else
  %refcnt.i = getelementptr inbounds nuw i8, ptr %2, i64 8
  %3 = load i64, ptr %refcnt.i, align 8
  %tobool1.not.i = icmp eq i64 %3, 0
  br i1 %tobool1.not.i, label %if.else.i14, label %land.lhs.true.i12

if.else.i14:                                      ; preds = %lor.lhs.false.i
  call void @__assert_fail(ptr noundef nonnull @.str.4, ptr noundef nonnull @.str.3, i32 noundef 97, ptr noundef nonnull @__PRETTY_FUNCTION__.qobject_unref_impl) #4
  unreachable

land.lhs.true.i12:                                ; preds = %lor.lhs.false.i
  %dec.i = add i64 %3, -1
  store i64 %dec.i, ptr %refcnt.i, align 8
  %cmp.i13 = icmp eq i64 %dec.i, 0
  br i1 %cmp.i13, label %if.then5.i, label %if.end

if.then5.i:                                       ; preds = %land.lhs.true.i12
  call void @qobject_destroy(ptr noundef nonnull %2) #3
  br label %if.end

if.end:                                           ; preds = %if.then5.i, %land.lhs.true.i12, %if.else, %if.then
  call void @qapi_event_emit(i32 noundef 32, ptr noundef %call) #3
  call void @visit_free(ptr noundef %call6) #3
  %tobool16.not = icmp eq ptr %call, null
  br i1 %tobool16.not, label %qobject_unref_impl.exit24, label %lor.lhs.false.i16

lor.lhs.false.i16:                                ; preds = %if.end
  %refcnt.i17 = getelementptr inbounds nuw i8, ptr %call, i64 8
  %4 = load i64, ptr %refcnt.i17, align 8
  %tobool1.not.i18 = icmp eq i64 %4, 0
  br i1 %tobool1.not.i18, label %if.else.i23, label %land.lhs.true.i19

if.else.i23:                                      ; preds = %lor.lhs.false.i16
  call void @__assert_fail(ptr noundef nonnull @.str.4, ptr noundef nonnull @.str.3, i32 noundef 97, ptr noundef nonnull @__PRETTY_FUNCTION__.qobject_unref_impl) #4
  unreachable

land.lhs.true.i19:                                ; preds = %lor.lhs.false.i16
  %dec.i20 = add i64 %4, -1
  store i64 %dec.i20, ptr %refcnt.i17, align 8
  %cmp.i21 = icmp eq i64 %dec.i20, 0
  br i1 %cmp.i21, label %if.then5.i22, label %qobject_unref_impl.exit24

if.then5.i22:                                     ; preds = %land.lhs.true.i19
  call void @qobject_destroy(ptr noundef nonnull %call) #3
  br label %qobject_unref_impl.exit24

qobject_unref_impl.exit24:                        ; preds = %if.end, %land.lhs.true.i19, %if.then5.i22
  ret void
}

declare ptr @qmp_event_build_dict(ptr noundef) local_unnamed_addr #1

declare ptr @qobject_output_visitor_new_qmp(ptr noundef) local_unnamed_addr #1

declare zeroext i1 @visit_start_struct(ptr noundef, ptr noundef, ptr noundef, i64 noundef, ptr noundef) local_unnamed_addr #1

declare zeroext i1 @visit_type_q_obj_RDMA_GID_STATUS_CHANGED_arg_members(ptr noundef, ptr noundef, ptr noundef) local_unnamed_addr #1

declare zeroext i1 @visit_check_struct(ptr noundef, ptr noundef) local_unnamed_addr #1

declare void @visit_end_struct(ptr noundef, ptr noundef) local_unnamed_addr #1

declare void @visit_complete(ptr noundef, ptr noundef) local_unnamed_addr #1

declare i64 @qdict_size(ptr noundef) local_unnamed_addr #1

declare void @qdict_put_obj(ptr noundef, ptr noundef, ptr noundef) local_unnamed_addr #1

declare void @qapi_event_emit(i32 noundef, ptr noundef) local_unnamed_addr #1

declare void @visit_free(ptr noundef) local_unnamed_addr #1

; Function Attrs: noreturn nounwind
declare void @__assert_fail(ptr noundef, ptr noundef, i32 noundef, ptr noundef) local_unnamed_addr #2

declare void @qobject_destroy(ptr noundef) local_unnamed_addr #1


!llvm.module.flags = !{!0, !1, !2, !3, !4}

!0 = !{i32 1, !"wchar_size", i32 4}
!1 = !{i32 8, !"PIC Level", i32 2}
!2 = !{i32 7, !"PIE Level", i32 2}
!3 = !{i32 7, !"uwtable", i32 2}
!4 = !{i32 7, !"frame-pointer", i32 2}
